; Function Attrs: mustprogress uwtable
define dso_local void @_ZN14cmFileLockPool17PushFunctionScopeEv(ptr noundef nonnull align 8 dereferenceable(72) %0) local_unnamed_addr #2 align 2 {
  %2 = getelementptr inbounds nuw i8, ptr %0, i64 8
  %3 = load ptr, ptr %2, align 8
  %4 = getelementptr inbounds nuw i8, ptr %0, i64 16
  %5 = load ptr, ptr %4, align 8
  %.not.i = icmp eq ptr %3, %5
  br i1 %.not.i, label %9, label %6

6:                                                ; preds = %1
  tail call void @llvm.memset.p0.i64(ptr noundef nonnull align 8 dereferenceable(24) %3, i8 0, i64 24, i1 false)
  %7 = load ptr, ptr %2, align 8
  %8 = getelementptr inbounds nuw i8, ptr %7, i64 24
  store ptr %8, ptr %2, align 8
  br label %_ZNSt6vectorIN14cmFileLockPool9ScopePoolESaIS1_EE12emplace_backIJEEERS1_DpOT_.exit

9:                                                ; preds = %1
  tail call void @_ZNSt6vectorIN14cmFileLockPool9ScopePoolESaIS1_EE17_M_realloc_insertIJEEEvN9__gnu_cxx17__normal_iteratorIPS1_S3_EEDpOT_(ptr noundef nonnull align 8 dereferenceable(24) %0, ptr %3)
  br label %_ZNSt6vectorIN14cmFileLockPool9ScopePoolESaIS1_EE12emplace_backIJEEERS1_DpOT_.exit

_ZNSt6vectorIN14cmFileLockPool9ScopePoolESaIS1_EE12emplace_backIJEEERS1_DpOT_.exit: ; preds = %6, %9
  ret void
}